(inetwork
Network
p0
(dp1
S'layers'
p2
(lp3
(ilayer
Layer
p4
(dp5
S'neurons'
p6
(lp7
(ineuron
Neuron
p8
(dp9
S'oldWeights'
p10
(lp11
F0.024346058873461498
aF0.76903653543670825
aF0.17588069219480695
aF0.99847310953552049
aF-0.88420442201859561
aF-0.054322672164472202
aF0.1876924881582869
aF-0.937661832804915
aF-0.27447614371154283
aF0.20483547325467608
aF0.022390087771925332
aF-0.033630271889195776
aF0.10535193010275046
aF0.28362383916149475
aF-0.59124999470526851
aF0.62782111659638862
aF0.063989489351567216
aF-0.50980055462879148
aF-0.88639201359626762
aF0.12394818513320126
aF0.43803680470314477
aF0.6113628968617365
aF0.915038476763263
aF0.73305709401422947
aF-0.66549036159255237
asS'moment'
p12
F0.10000000000000001
sS'bias'
p13
F-0.26913567358791374
sS'weights'
p14
(lp15
F0.024345373187572496
aF0.76903654888359951
aF0.17588069219480695
aF0.99847312298241175
aF-0.88423313230992562
aF-0.054322693144618628
aF0.18766381229399462
aF-0.93769055654313638
aF-0.27450485400287289
aF0.20481130731445077
aF0.022390066791778906
aF-0.033635446519005324
aF0.10534676891983223
aF0.28359514985031109
aF-0.59127419507253154
aF0.62782109561624222
aF0.063960800040383611
aF-0.50982927836701286
aF-0.88642073733448901
aF0.12392401919297596
aF0.43803610557036443
aF0.61136291030862777
aF0.91503849021015427
aF0.73305710746112074
aF-0.66551908533077375
asS'gain'
p16
F0.10000000000000001
sS'oldBias'
p17
F-0.26910696329658368
sS'numInputs'
p18
I25
sba(ineuron
Neuron
p19
(dp20
g10
(lp21
F-0.10190542191712068
aF0.25805717263812616
aF0.084998423922766242
aF-0.031886209602018316
aF0.084169684513820037
aF0.93903142035317932
aF-1.3976873534327694
aF0.41592776893972955
aF-0.87398851677710809
aF-0.49834603937891497
aF0.11423240043397145
aF-0.24068100920631885
aF-1.0568267475423787
aF-0.69176097696123839
aF-0.21261377815833082
aF1.0725761768198521
aF-0.027601902453642593
aF-0.12159426610532949
aF0.25343644588578157
aF-1.2480048956904035
aF0.61394036933699958
aF0.22633131147227095
aF0.035133536676945958
aF0.10667286320708635
aF0.58724938661325043
asg12
F0.10000000000000001
sg13
F-0.19615770714851463
sg14
(lp22
F-0.10190506241788592
aF0.25805714041974115
aF0.084998423922766242
aF-0.031886241820403317
aF0.084120360597090743
aF0.93903185860627492
aF-1.3977371478209792
aF0.41587847724138527
aF-0.87403784069383739
aF-0.49838276879442345
aF0.11423283868706702
aF-0.24069415293288104
aF-1.0568399234873258
aF-0.69181073913106328
aF-0.21265003710235872
aF1.0725766150729477
aF-0.027651664623467433
aF-0.12164355780367378
aF0.25338715418743729
aF-1.2480416251059121
aF0.61394076105461937
aF0.22633127925388594
aF0.035133504458560956
aF0.10667283098870135
aF0.5872000949149061
asg16
F0.10000000000000001
sg17
F-0.19610838323178537
sg18
I25
sba(ineuron
Neuron
p23
(dp24
g10
(lp25
F1.3599475552607307
aF-0.42001740430377427
aF0.73727633769550061
aF-0.30566878196019448
aF-1.2801249724052253
aF-0.56942979352276746
aF-0.51321488039075003
aF-0.69149562671113207
aF-0.75060831609478218
aF0.74668788858517021
aF-0.28595625205977915
aF1.2456264763476474
aF0.28337846451935356
aF0.47847270776687201
aF0.33682184390187037
aF-0.98963017014051924
aF0.58732171382771325
aF-0.32499636549957345
aF0.11940689965604663
aF0.51747817681128438
aF1.6449370615554482
aF0.23573694122825262
aF-0.080085980468784609
aF-0.27572917142853276
aF-0.53251488839353223
asg12
F0.10000000000000001
sg13
F-1.1333701417327431
sg14
(lp26
F1.3599583171742704
aF-0.42001742123666858
aF0.73727633769550061
aF-0.30566879889308879
aF-1.280758543801777
aF-0.56942998761029906
aF-0.51384827463266447
aF-0.69212918117478939
aF-0.7512418874913338
aF0.74610706698508689
aF-0.28595644614731075
aF1.2455848597068875
aF0.28333683094569934
aF0.47783933045785187
aF0.33624084514714969
aF-0.98963036422805084
aF0.58668833651869312
aF-0.32562991996323082
aF0.11877334519238926
aF0.51689735521120106
aF1.644947840401882
aF0.23573692429535828
aF-0.080085997401678932
aF-0.27572918836142707
aF-0.53314844285718954
asg16
F0.10000000000000001
sg17
F-1.1327365703361914
sg18
I25
sba(ineuron
Neuron
p27
(dp28
g10
(lp29
F-0.46720704386540951
aF0.45135031672248299
aF0.83931756941742897
aF-0.015607081566076618
aF-0.22027554339257779
aF-0.36910391082240679
aF0.024875722679361393
aF0.41577072485828198
aF-0.50457310947468825
aF-1.3212888722760876
aF-0.47034348066126963
aF0.79479214456545011
aF0.37164359734781172
aF0.18050409800896733
aF-1.7872727903231245
aF-0.1043899168712594
aF0.83681398676243035
aF0.16958512727352407
aF0.51918801119818248
aF-1.0804710303766154
aF-0.45671684084828551
aF0.13273467084644919
aF0.38203577992130705
aF0.075930460355728674
aF-0.10422094532575744
asg12
F0.10000000000000001
sg13
F-0.11878239808873074
sg14
(lp30
F-0.46721052629881787
aF0.45135031629454064
aF0.83931756941742897
aF-0.015607081994018975
aF-0.22042901588056563
aF-0.36910399497223356
aF0.024722333913257937
aF0.41561725279823647
aF-0.50472658196267617
aF-1.321510546010696
aF-0.4703435648110964
aF0.79485703125037332
aF0.37170848360479258
aF0.18035070967080624
aF-1.7874945477796171
aF-0.10439000102108616
aF0.83666059842426921
aF0.16943165521347858
aF0.51903453913813691
aF-1.0806927041112238
aF-0.45672032285375147
aF0.13273467041850684
aF0.3820357794933647
aF0.075930459927786312
aF-0.10437441738580294
asg16
F0.10000000000000001
sg17
F-0.11862892560074288
sg18
I25
sba(ineuron
Neuron
p31
(dp32
g10
(lp33
F-0.93291177383405577
aF0.50381726889737666
aF0.081136311608409284
aF-0.31994423755447426
aF-0.14856217785078629
aF-0.4559477913389246
aF-0.1709735446667385
aF0.3278477232781884
aF-0.98028661839555387
aF0.50024721115016235
aF-0.50488957127524869
aF0.016246039314240669
aF-0.21647467521095809
aF0.18967633707449907
aF0.24062001166838398
aF0.2186657982341792
aF0.62198649066717171
aF-0.28773007922837285
aF-0.23104580326419286
aF0.78175846199669419
aF-0.028073238259923954
aF-0.17468733689590393
aF0.65223145376097402
aF0.20765661285687959
aF-0.050330797926195124
asg12
F0.10000000000000001
sg13
F-0.67726730245127398
sg14
(lp34
F-0.93297033354558634
aF0.50381693922528126
aF0.081136311608409284
aF-0.31994456722656966
aF-0.13704589503130427
aF-0.4559482150078269
aF-0.15945716785044961
aF0.33936433576976582
aF-0.96877033557607184
aF0.51200457105742381
aF-0.50488999494415099
aF0.015946920180639833
aF-0.21677412401665436
aF0.20119304356288339
aF0.25237727757883849
aF0.2186653745652769
aF0.63350319715555603
aF-0.27621346673679542
aF-0.21952919077261543
aF0.79351582190395564
aF-0.028131468299359155
aF-0.17468766656799933
aF0.65223112408887862
aF0.20765628318478419
aF-0.038814185434617697
asg16
F0.10000000000000001
sg17
F-0.688783585270756
sg18
I25
sbasg18
I25
sS'size'
p35
I5
sbasg18
I25
sb.