(inetwork
Network
p0
(dp1
S'layers'
p2
(lp3
(ilayer
Layer
p4
(dp5
S'neurons'
p6
(lp7
(ineuron
Neuron
p8
(dp9
S'oldWeights'
p10
(lp11
F-0.2247860967633554
aF1.1765185862805905
aF0.095967991187941304
aF0.83502737346545652
aF-0.37342217752207174
aF0.20157969546714696
aF0.30306381366783552
aF-0.47254103643109946
aF-0.53856446487291776
aF0.19104464695517767
aF0.077250938907902009
aF0.25165374878172636
aF-0.096978119729336759
aF-0.4374632304652889
aF-0.22227868161897549
aF0.58618197071368849
aF-0.63155182961413969
aF-0.69111428372930361
aF-0.88712895554593496
aF0.65753740708729813
aF-0.40771570254902445
aF0.62653356847658559
aF0.64833487282892865
aF0.95059378200562517
aF-0.31405239810419094
asS'moment'
p12
F0.10000000000000001
sS'bias'
p13
F-0.90344239028733697
sS'weights'
p14
(lp15
F-0.22478618209219042
aF1.1765185901856736
aF0.095967991187941304
aF0.83502737737053967
aF-0.37343993989910029
aF0.20157967655043746
aF0.30304607411259965
aF-0.47255880271321127
aF-0.53858222724994631
aF0.19102757952186142
aF0.077250919991192518
aF0.25165301024768127
aF-0.096978854358298658
aF-0.43748097392560797
aF-0.22229577187408445
aF0.58618195179697896
aF-0.63156957307445871
aF-0.69113205001141531
aF-0.88714672182804666
aF0.65752033965398193
aF-0.40771579178294265
aF0.62653357238166874
aF0.6483348767340118
aF0.95059378591070831
aF-0.31407016438630275
asS'gain'
p16
F0.10000000000000001
sS'oldBias'
p17
F-0.90342462791030842
sS'numInputs'
p18
I25
sba(ineuron
Neuron
p19
(dp20
g10
(lp21
F0.36592959933542307
aF-0.22881202520513369
aF0.2320521785141938
aF0.22153681971767267
aF-0.10902437870530601
aF0.36976546309029767
aF-1.5438823533420778
aF0.34247427169880712
aF-0.52021305064171708
aF-0.95753108639109064
aF0.53910332728498744
aF-0.66567223965805022
aF-0.63913686412476145
aF-0.24672085174287284
aF0.34709726273486002
aF0.90636218080298248
aF-0.49887767797053367
aF-0.25557703572825136
aF0.65453632913608417
aF-1.1928019322900729
aF1.3078180660437022
aF-0.71821445420526175
aF0.17144868664670485
aF-0.19074557889858043
aF0.15392458652266003
asg12
F0.10000000000000001
sg13
F-0.67915798768607938
sg14
(lp22
F0.36592944823982598
aF-0.22881202939149778
aF0.2320521785141938
aF0.22153681553130858
aF-0.10903946899029741
aF0.36976555566159697
aF-1.5438975403847326
aF0.34245918560017979
aF-0.52022814092670844
aF-0.95754313900894494
aF0.53910341985628674
aF-0.66567561774974704
aF-0.6391402464028223
aF-0.24673603459916352
aF0.34708530687466904
aF0.90636227337428177
aF-0.49889286082682432
aF-0.25559212182687868
aF0.65452124303745685
aF-1.1928139849079273
aF1.3078179191344692
aF-0.71821445839162579
aF0.17144868246034076
aF-0.19074558308494452
aF0.1539095004240327
asg16
F0.10000000000000001
sg17
F-0.67914289740108802
sg18
I25
sba(ineuron
Neuron
p23
(dp24
g10
(lp25
F1.7117706287707026
aF-0.23486406253051725
aF0.98369466040043285
aF0.12428999646514327
aF-1.5616859736850837
aF-1.3059144399987781
aF-0.56370265479496939
aF-0.22239346295328813
aF-0.99348176754438267
aF0.93621878700543593
aF-0.85938089571902032
aF1.1830396589930436
aF0.87111890878221609
aF-0.096726219443343933
aF0.43460983036572992
aF-1.2260434035971512
aF0.37746923440598407
aF-0.19787091342754584
aF-0.32249376672817703
aF0.68307633853509331
aF2.4325104681202272
aF-0.078205170427592507
aF-0.20565056888733715
aF-0.093682673414802159
aF-0.23168631717453245
asg12
F0.10000000000000001
sg13
F-1.5201082936743344
sg14
(lp26
F1.7117730832535252
aF-0.23486406652509123
aF0.98369466040043285
aF0.12428999247056929
aF-1.5618233264562813
aF-1.305914485427339
aF-0.56383996613218024
aF-0.22253081172991188
aF-0.99361912031558042
aF0.93609421792191627
aF-0.85938094114758123
aF1.183029416650736
aF0.87110866244533447
aF-0.096863526785980716
aF0.4344852198482233
aF-1.2260434490257122
aF0.37733192706334728
aF-0.19800826220416959
aF-0.32263111550480084
aF0.68295176945157365
aF2.4325129265976235
aF-0.078205174422166485
aF-0.20565057288191113
aF-0.093682677409376136
aF-0.23182366595115619
asg16
F0.10000000000000001
sg17
F-1.5199709409031368
sg18
I25
sba(ineuron
Neuron
p27
(dp28
g10
(lp29
F-0.77173793159546811
aF0.27029786004006773
aF0.6403887731569109
aF0.6684513547530353
aF-0.18074135816464829
aF-0.1507840973977343
aF-0.082323525246669568
aF-0.11981921449128576
aF-0.31554727337842797
aF-0.57048935644859311
aF0.11330340223930811
aF1.0143271860929479
aF0.23775823358245174
aF0.63464191197235198
aF-0.58619793965823197
aF0.16840663676378459
aF-0.10445703892730915
aF-0.1427539563190301
aF0.16665361748176122
aF-0.39662788545679173
aF-0.22722112634344643
aF0.65929427557373632
aF-0.26835871699775082
aF0.40466791559284954
aF-0.25485199973742478
asg12
F0.10000000000000001
sg13
F-0.17740025010787369
sg14
(lp30
F-0.77175265578585861
aF0.27029725719761055
aF0.6403887731569109
aF0.66845075191057812
aF-0.18093754249235838
aF-0.15078522406718134
aF-0.082519185747389798
aF-0.1200147959765387
aF-0.3157434577061381
aF-0.57151237952031009
aF0.11330227556986108
aF1.0151409511430012
aF0.23857139579004782
aF0.63444685431408887
aF-0.58722148655693884
aF0.16840551009433755
aF-0.10465209658557223
aF-0.14294953780428304
aF0.16645803599650827
aF-0.39765090852850871
aF-0.22723524769137982
aF0.65929367273127915
aF-0.268359319840208
aF0.40466731275039236
aF-0.25504758122267773
asg16
F0.10000000000000001
sg17
F-0.17720406578016359
sg18
I25
sba(ineuron
Neuron
p31
(dp32
g10
(lp33
F-1.9359414839005735
aF-0.0195926860418369
aF0.90369751889664618
aF-0.13159625423943705
aF-0.5061180518067091
aF-0.36351147259529548
aF0.17254542999495809
aF0.32491436257264639
aF-0.66228851064276062
aF1.0311249657149966
aF-0.59174125207243466
aF-1.3877474195907888
aF-2.1704235640957359
aF0.60534684537320427
aF0.57711950550601698
aF-0.41235821129739991
aF1.00784222050904
aF-0.25714864599815157
aF0.14366303138468792
aF1.4505341894219841
aF-1.0719185145329588
aF0.052209213493929235
aF0.19646176435178003
aF-0.27706742061061884
aF-0.19290593760430666
asg12
F0.10000000000000001
sg13
F-0.60761870283208219
sg14
(lp34
F-1.9359423596930836
aF-0.019592688205437664
aF0.90369751889664618
aF-0.13159625640303782
aF-0.50594457105200175
aF-0.3635114762393763
aF0.17271891223014549
aF0.32508784549095449
aF-0.66211502988805326
aF1.0313063371670683
aF-0.59174125571651548
aF-1.3877561809561025
aF-2.17043232762465
aF0.60552032977199244
aF0.57730087547760867
aF-0.41235821494148073
aF1.0080157049078282
aF-0.25697516307984347
aF0.14383651430299602
aF1.4507155608740558
aF-1.0719193881618683
aF0.052209211330328471
aF0.19646176218817926
aF-0.27706742277421958
aF-0.19273245468599856
asg16
F0.10000000000000001
sg17
F-0.60779218358678955
sg18
I25
sbasg18
I25
sS'size'
p35
I5
sbasg18
I25
sb.