(inetwork
Network
p0
(dp1
S'layers'
p2
(lp3
(ilayer
Layer
p4
(dp5
S'neurons'
p6
(lp7
(ineuron
Neuron
p8
(dp9
S'oldWeights'
p10
(lp11
F0.65547791701143221
aF0.12616418392792392
aF0.45376833127216776
aF0.77152141155820619
aF0.11207139272669323
aF0.060828300203095098
aF-0.5607478171171224
aF-0.30452605382946107
aF0.10321670994283186
aF0.12046885714561249
aF-0.13038227645845715
aF-0.39269469358371323
aF0.34283090112969972
aF-0.31158326243605117
aF-0.11692489679505087
aF0.20705356604553823
aF-0.50637345203780526
aF0.14945374575377685
aF-0.032563375629747204
aF0.1173878344623803
aF0.28606195062176859
aF0.78536898212901429
aF0.97448401218868785
aF0.83481865481087481
aF-0.71782079793368081
asS'moment'
p12
F0.10000000000000001
sS'bias'
p13
F-0.089341401191541311
sS'weights'
p14
(lp15
F0.6554118111497611
aF0.12616418511800814
aF0.45376833127216776
aF0.77152141274829045
aF0.11073436804475574
aF0.060813765980052129
aF-0.56207030638593269
aF-0.30586307970148274
aF0.10187968526089437
aF0.11923770170550384
aF-0.13039681068150011
aF-0.39283759905104304
aF0.3426879968524541
aF-0.31290575289494565
aF-0.11817058764828671
aF0.20703903182249528
aF-0.5076959424966998
aF0.14811671988175515
aF-0.033900401501768901
aF0.11615667902227164
aF0.28599584357001323
aF0.78536898331909855
aF0.97448401337877211
aF0.83481865600095906
aF-0.71915782380570248
asS'gain'
p16
F0.10000000000000001
sS'oldBias'
p17
F-0.088004376509603827
sS'numInputs'
p18
I25
sba(ineuron
Neuron
p19
(dp20
g10
(lp21
F0.50362549682749269
aF-0.17228033178817759
aF0.78116239711081648
aF0.40552944816220526
aF-0.64683874913778361
aF0.5938784580557408
aF-1.1626308634155362
aF0.30014029619555965
aF-0.23156034428270661
aF-0.68698886323237907
aF1.0860401318117798
aF0.20155987569418704
aF-0.2643866609057684
aF-0.57692575673962121
aF-0.37437991867479997
aF0.76306764176435249
aF-0.1193381023157981
aF0.17150669052846695
aF-0.091898918002588786
aF-1.0594950248651849
aF0.49172254157154865
aF-0.5567248874964309
aF0.12012734344091984
aF-0.57848749236089125
aF0.20604757534465867
asg12
F0.10000000000000001
sg13
F-0.43665173200558727
sg14
(lp22
F0.50362568317459178
aF-0.17228036929652515
aF0.78116239711081648
aF0.40552941065385767
aF-0.64688743891741551
aF0.59387913938944836
aF-1.1626802720372234
aF0.30009164392427534
aF-0.23160903406233851
aF-0.68699730538346682
aF1.0860408131454875
aF0.20151841423697905
aF-0.26442815987132395
aF-0.57697512785296079
aF-0.37438764198383245
aF0.76306832309806005
aF-0.11938747342913759
aF0.17145803825718262
aF-0.091947570273873125
aF-1.0595034670162724
aF0.49172276542699522
aF-0.55672492500477844
aF0.12012730593257227
aF-0.57848752986923879
aF0.20599892307337433
asg16
F0.10000000000000001
sg17
F-0.43660304222595536
sg18
I25
sba(ineuron
Neuron
p23
(dp24
g10
(lp25
F0.77999062149496345
aF-0.21777467854815946
aF0.17137262459629066
aF0.31883512815036646
aF-1.0060670914597516
aF-0.87495833745763685
aF-0.37011289962568089
aF0.15158882295441914
aF-0.61294326944815847
aF0.40840605268818736
aF-0.79136708278506052
aF0.89328078209241157
aF0.15304075881454876
aF0.4080516963764122
aF0.30985580290449533
aF-0.90817851799626514
aF0.04258730744554886
aF-0.65649670612587918
aF-0.16115038784908517
aF0.32009811332169097
aF1.7336686210711567
aF0.2241980838750211
aF-0.42663754724562325
aF0.40707548069642335
aF-0.51433372792994636
asg12
F0.10000000000000001
sg13
F-0.29968009915496613
sg14
(lp26
F0.78001557368073338
aF-0.21777472376223306
aF0.17137262459629066
aF0.31883508293629287
aF-1.0074720901261891
aF-0.87495865887801216
aF-0.37151762208581673
aF0.15018386950205523
aF-0.61434826811459609
aF0.40713544277915148
aF-0.79136740420543583
aF0.89317194314745674
aF0.15293187465552033
aF0.40664701913034995
aF0.30858491678915778
aF-0.90817883941664046
aF0.041182630199486606
aF-0.6579016595782432
aF-0.16255534130144908
aF0.31882750341265509
aF1.7336936184710001
aF0.22419803866094751
aF-0.42663759245969685
aF0.40707543548234976
aF-0.51573868138231038
asg16
F0.10000000000000001
sg17
F-0.29827510048852862
sg18
I25
sba(ineuron
Neuron
p27
(dp28
g10
(lp29
F-0.70692602363694546
aF0.32697888131461095
aF0.8132367073818878
aF0.564110970206399
aF-0.28085767042464588
aF0.17921245742692848
aF0.42630415031456542
aF-0.19185726348469456
aF-0.33592158224142782
aF-0.68338851221692387
aF-0.36018303210547753
aF0.95974611241870977
aF0.91783672423465557
aF-0.012401367148894929
aF-1.237824672288522
aF-0.43102234946404683
aF0.69147487334050106
aF-0.31381965297477615
aF0.07343796306022958
aF-0.99441023816969776
aF-0.61779862872630753
aF0.36571429700704561
aF-0.35334707115571085
aF0.11249355673790991
aF0.54740997161619576
asg12
F0.10000000000000001
sg13
F-0.52253552841506168
sg14
(lp30
F-0.70693383403083621
aF0.32697886022255696
aF0.8132367073818878
aF0.56411094911434501
aF-0.2810191674666338
aF0.17921241479097866
aF0.42614267481647333
aF-0.19201873943462847
aF-0.33608307928341574
aF-0.68368725740940184
aF-0.36018307474142736
aF0.95987561435515478
aF0.91796620507904658
aF-0.012562821554932999
aF-1.2381234390248959
aF-0.43102239209999665
aF0.69131341893446296
aF-0.31398112892471003
aF0.073276487110295677
aF-0.99470898336217572
aF-0.61780641802814418
aF0.36571427591499162
aF-0.35334709224776484
aF0.11249353564585589
aF0.54724849566626188
asg16
F0.10000000000000001
sg17
F-0.52237403137307381
sg18
I25
sba(ineuron
Neuron
p31
(dp32
g10
(lp33
F-1.2129742244371011
aF-0.27963669965692789
aF0.12359913531568589
aF0.059136893782186506
aF0.065505710614796306
aF-0.41208204302359563
aF-0.031416977245409296
aF0.42732851522291043
aF-0.35936716610738834
aF0.84057084689170436
aF-0.21837219903335889
aF-0.74278032621082546
aF-1.0288516801891952
aF0.38652280561333224
aF0.69843399408515616
aF-0.32458955862788408
aF0.39274617309237686
aF-0.37178421684904833
aF-0.040798433338038814
aF0.18326292710381065
aF-0.22454485806778315
aF0.37677043210667888
aF-0.24007826373742344
aF0.068742547536340723
aF-0.020771955117064079
asg12
F0.10000000000000001
sg13
F-0.81123847932739634
sg14
(lp34
F-1.212991617036246
aF-0.27963674425653706
aF0.12359913531568589
aF0.059136849182577327
aF0.068725410278672086
aF-0.41208241018061942
aF-0.028196955024118928
aF0.43054825948639541
aF-0.35614746644351258
aF0.84389275366962124
aF-0.21837256619038264
aF-0.74289923620957321
aF-1.028970634787552
aF0.38974287243423178
aF0.70175557830565849
aF-0.32458992578490786
aF0.3959662399132764
aF-0.36856447258556335
aF-0.037578689074553855
aF0.18658483388172756
aF-0.22456220606731894
aF0.3767703875070697
aF-0.24007830833703261
aF0.068742502936731537
aF-0.017552210853579119
asg16
F0.10000000000000001
sg17
F-0.81445817899127215
sg18
I25
sbasg18
I25
sS'size'
p35
I5
sbasg18
I25
sb.