(inetwork
Network
p0
(dp1
S'layers'
p2
(lp3
(ilayer
Layer
p4
(dp5
S'neurons'
p6
(lp7
(ineuron
Neuron
p8
(dp9
S'oldWeights'
p10
(lp11
F0.26311048431932055
aF0.99394660304217175
aF0.96622123527691572
aF0.66358425769094209
aF-0.59097154661439599
aF0.073955804651005846
aF-0.14736183962339727
aF-0.9527613328015333
aF-0.57097305359808559
aF0.25554650735457862
aF0.13220603083444418
aF-0.26816521962018486
aF0.10051660820570485
aF-0.15092624515108868
aF0.29059854166520893
aF0.1032088627944942
aF-0.2317610040015213
aF-0.45185993109246453
aF-0.82132398688894559
aF0.045349474051925673
aF-0.10008788826325564
aF0.91436097843484609
aF0.10023487312813509
aF0.32701075090907944
aF-0.41419411634896292
asS'moment'
p12
F0.10000000000000001
sS'bias'
p13
F-0.0013544314779924188
sS'weights'
p14
(lp15
F0.26310978721219436
aF0.99394662650647425
aF0.96622123527691572
aF0.66358428115524459
aF-0.59102582809527826
aF0.073955628129690143
aF-0.14741592111866142
aF-0.95281563774671807
aF-0.57102733507896786
aF0.25549361771170237
aF0.13220585431312848
aF-0.26816693205838321
aF0.10051491923180897
aF-0.15098035011065533
aF0.29054545203671445
aF0.1032086862731785
aF-0.23181510896108795
aF-0.45191423603764935
aF-0.82137829183413036
aF0.045296584409049399
aF-0.10008860883468432
aF0.9143610018991486
aF0.10023489659243758
aF0.32701077437338194
aF-0.41424842129414774
asS'gain'
p16
F0.10000000000000001
sS'oldBias'
p17
F-0.001300149997110069
sS'numInputs'
p18
I25
sba(ineuron
Neuron
p19
(dp20
g10
(lp21
F0.73524577940783664
aF-0.45654978483513731
aF0.64252338827990851
aF-0.15919253235047276
aF-0.64210227214520676
aF0.29217813958504457
aF-1.0544975657001985
aF0.42143499516557126
aF0.14124726301161922
aF-0.94022112077866171
aF0.85721681195784138
aF0.15693400778411801
aF-1.1138503177197725
aF-0.57319337764370282
aF-0.26065985586006579
aF0.21875216453525007
aF-0.67797697769094789
aF0.31351634718217314
aF0.23894801533208229
aF-0.69458808138725803
aF0.51887478427787515
aF0.35163430577133903
aF0.23400635817702958
aF0.097498511984677419
aF0.42372901025084375
asg12
F0.10000000000000001
sg13
F-0.64483989513386697
sg14
(lp22
F0.73524556968835575
aF-0.45654980483360158
aF0.64252338827990851
aF-0.15919255234893703
aF-0.64215866184622516
aF0.2921785569296933
aF-1.0545543927443299
aF0.42137862546301708
aF0.14119087331060076
aF-0.94025683895632883
aF0.85721722930249011
aF0.15691227185352405
aF-1.1138720736488308
aF-0.57325018468937006
aF-0.26069513669461991
aF0.21875258187989882
aF-0.67803378473661513
aF0.31345997747961896
aF0.23889164562952811
aF-0.69462379956492515
aF0.51887459455685847
aF0.35163428577287476
aF0.23400633817856531
aF0.097498491986213159
aF0.42367264054828957
asg16
F0.10000000000000001
sg17
F-0.64478350543284857
sg18
I25
sba(ineuron
Neuron
p23
(dp24
g10
(lp25
F1.1068610554726519
aF-0.55813167166591271
aF0.93888625322434638
aF-0.15955455949396055
aF-1.2481372688438124
aF-0.67552528184445704
aF-0.30878932375069679
aF-0.10242046575756646
aF-0.88012414178149645
aF0.7172643729688587
aF-0.55692041591821417
aF1.3252362617380293
aF0.36081308495975578
aF0.66015951839412779
aF0.44786887986511043
aF-0.54639745882985924
aF-0.11542998619046896
aF-0.29666055995418522
aF-0.2668016906854373
aF0.51001228825545619
aF1.2352289386906041
aF-0.47524125108997672
aF0.20672151966678462
aF0.25491373834691444
aF-0.33658488161214911
asg12
F0.10000000000000001
sg13
F-0.98641043132135131
sg14
(lp26
F1.1068780611243452
aF-0.55813170298002501
aF0.93888625322434638
aF-0.15955459080807283
aF-1.2491001649904396
aF-0.67552548614714469
aF-0.30975204690874875
aF-0.10338333059008149
aF-0.88108703792812371
aF0.71639350529592016
aF-0.55692062022090183
aF1.325161616207297
aF0.36073840811491109
aF0.65919682655018819
aF0.44699783920359648
aF-0.5463976631325469
aF-0.11639267803440863
aF-0.29762342478670029
aF-0.26776455551795236
aF0.50914142058251766
aF1.2352459756564098
aF-0.47524128240408903
aF0.20672148835267234
aF0.25491370703280214
aF-0.33754774644466418
asg16
F0.10000000000000001
sg17
F-0.98544753517472405
sg18
I25
sba(ineuron
Neuron
p27
(dp28
g10
(lp29
F-0.0036038602167429296
aF0.49443798982520443
aF0.50634261902743694
aF0.62691547542223081
aF0.039506772818998601
aF0.34418065666929387
aF0.19088557413216739
aF-0.41286568191789458
aF-0.1255838071735286
aF0.074171138779926579
aF-0.08536023986568804
aF0.14917245891348191
aF0.84260200496307536
aF0.0071322517832939341
aF-0.31952446992062516
aF0.31647000311121931
aF0.19445923927387065
aF-0.51094827792148168
aF0.25103171557624981
aF0.15668401004327157
aF-0.47787402048008787
aF0.27687057755780642
aF0.20624137091211714
aF0.28075805316537872
aF-0.070494841447524326
asg12
F0.10000000000000001
sg13
F-0.62968778689795046
sg14
(lp30
F-0.0036830044193750886
aF0.49443748607596055
aF0.50634261902743694
aF0.62691497167298693
aF0.036420593293643659
aF0.34417800116350983
aF0.18780154636335267
aF-0.41595135769400565
aF-0.12866998669888355
aF0.069713518479198114
aF-0.085362895371472097
aF0.15046956274854753
aF0.84389860504889713
aF0.0040487277637230451
aF-0.32398424197789383
aF0.31646734760543527
aF0.19137571525429978
aF-0.51403395369759275
aF0.24794603980013874
aF0.15222638974254313
aF-0.47795266093347616
aF0.27687007380856254
aF0.20624086716287329
aF0.28075754941613484
aF-0.073580517223635428
asg16
F0.10000000000000001
sg17
F-0.62660160737259551
sg18
I25
sba(ineuron
Neuron
p31
(dp32
g10
(lp33
F-0.87094659543438446
aF0.18762815318689594
aF0.17383669690881143
aF0.0080205662272584272
aF-0.059424767288751824
aF-0.1184937823496932
aF0.19136068192970218
aF-0.53400182436552968
aF-0.4411145320800241
aF0.9687964805171001
aF-0.31724954542709283
aF-0.45761332985326603
aF-0.64461699476916712
aF0.12169893195616398
aF0.46791306516112929
aF-0.01928863281511899
aF0.0036264154492654499
aF-0.06535211583604203
aF-0.046979912316046715
aF0.86246292557394733
aF-0.41903698004479856
aF-0.38589943436666679
aF0.18340562262772472
aF-0.34608358978365333
aF-0.17963508612458901
asg12
F0.10000000000000001
sg13
F-0.65869386899351468
sg14
(lp34
F-0.8709666454906787
aF0.1876275376236822
aF0.17383669690881143
aF0.0080199506640446887
aF-0.051543059261389287
aF-0.11849453460780715
aF0.19924252665196493
aF-0.5261195007749534
aF-0.43323282405266156
aF0.97671090516202042
aF-0.31725029768520679
aF-0.45766520757410389
aF-0.64466948805321878
aF0.12958139224164048
aF0.47582735311114943
aF-0.01928938507323294
aF0.011508875734741937
aF-0.057469792245465758
aF-0.039097588725470443
aF0.87037735021886764
aF-0.41905641453787912
aF-0.38590004992988053
aF0.18340500706451099
aF-0.34608420534686707
aF-0.17175276253401273
asg16
F0.10000000000000001
sg17
F-0.66657557702087722
sg18
I25
sbasg18
I25
sS'size'
p35
I5
sbasg18
I25
sb.